; ModuleID = '47/2814.c'
source_filename = "47/2814.c"
target datalayout = "e-m:e-p270:32:32-p271:32:32-p272:64:64-i64:64-f80:128-n8:16:32:64-S128"
target triple = "x86_64-pc-linux-gnu"

@.str = private unnamed_addr constant [3 x i8] c"%d\00", align 1
@.str.1 = private unnamed_addr constant [4 x i8] c"%d \00", align 1

; Function Attrs: noinline nounwind uwtable
define dso_local i32 @main() #0 {
  %1 = alloca i32, align 4
  %2 = alloca i32, align 4
  %3 = alloca i32, align 4
  %4 = alloca i32, align 4
  %5 = alloca [100 x i32], align 16
  store i32 0, i32* %1, align 4
  %6 = call i32 (i8*, ...) @__isoc99_scanf(i8* getelementptr inbounds ([3 x i8], [3 x i8]* @.str, i64 0, i64 0), i32* %2)
  store i32 0, i32* %3, align 4
  br label %7

7:                                                ; preds = %16, %0
  %8 = load i32, i32* %3, align 4
  %9 = load i32, i32* %2, align 4
  %10 = icmp slt i32 %8, %9
  br i1 %10, label %11, label %19

11:                                               ; preds = %7
  %12 = load i32, i32* %3, align 4
  %13 = sext i32 %12 to i64
  %14 = getelementptr inbounds [100 x i32], [100 x i32]* %5, i64 0, i64 %13
  %15 = call i32 (i8*, ...) @__isoc99_scanf(i8* getelementptr inbounds ([3 x i8], [3 x i8]* @.str, i64 0, i64 0), i32* %14)
  br label %16

16:                                               ; preds = %11
  %17 = load i32, i32* %3, align 4
  %18 = add nsw i32 %17, 1
  store i32 %18, i32* %3, align 4
  br label %7

19:                                               ; preds = %7
  %20 = load i32, i32* %2, align 4
  %21 = srem i32 %20, 2
  %22 = icmp eq i32 %21, 0
  br i1 %22, label %23, label %55

23:                                               ; preds = %19
  store i32 0, i32* %3, align 4
  br label %24

24:                                               ; preds = %51, %23
  %25 = load i32, i32* %3, align 4
  %26 = load i32, i32* %2, align 4
  %27 = sdiv i32 %26, 2
  %28 = icmp slt i32 %25, %27
  br i1 %28, label %29, label %54

29:                                               ; preds = %24
  %30 = load i32, i32* %2, align 4
  %31 = sub nsw i32 %30, 1
  %32 = load i32, i32* %3, align 4
  %33 = sub nsw i32 %31, %32
  %34 = sext i32 %33 to i64
  %35 = getelementptr inbounds [100 x i32], [100 x i32]* %5, i64 0, i64 %34
  %36 = load i32, i32* %35, align 4
  store i32 %36, i32* %4, align 4
  %37 = load i32, i32* %3, align 4
  %38 = sext i32 %37 to i64
  %39 = getelementptr inbounds [100 x i32], [100 x i32]* %5, i64 0, i64 %38
  %40 = load i32, i32* %39, align 4
  %41 = load i32, i32* %2, align 4
  %42 = sub nsw i32 %41, 1
  %43 = load i32, i32* %3, align 4
  %44 = sub nsw i32 %42, %43
  %45 = sext i32 %44 to i64
  %46 = getelementptr inbounds [100 x i32], [100 x i32]* %5, i64 0, i64 %45
  store i32 %40, i32* %46, align 4
  %47 = load i32, i32* %4, align 4
  %48 = load i32, i32* %3, align 4
  %49 = sext i32 %48 to i64
  %50 = getelementptr inbounds [100 x i32], [100 x i32]* %5, i64 0, i64 %49
  store i32 %47, i32* %50, align 4
  br label %51

51:                                               ; preds = %29
  %52 = load i32, i32* %3, align 4
  %53 = add nsw i32 %52, 1
  store i32 %53, i32* %3, align 4
  br label %24

54:                                               ; preds = %24
  br label %88

55:                                               ; preds = %19
  store i32 0, i32* %3, align 4
  br label %56

56:                                               ; preds = %84, %55
  %57 = load i32, i32* %3, align 4
  %58 = load i32, i32* %2, align 4
  %59 = sub nsw i32 %58, 1
  %60 = sdiv i32 %59, 2
  %61 = icmp slt i32 %57, %60
  br i1 %61, label %62, label %87

62:                                               ; preds = %56
  %63 = load i32, i32* %2, align 4
  %64 = sub nsw i32 %63, 1
  %65 = load i32, i32* %3, align 4
  %66 = sub nsw i32 %64, %65
  %67 = sext i32 %66 to i64
  %68 = getelementptr inbounds [100 x i32], [100 x i32]* %5, i64 0, i64 %67
  %69 = load i32, i32* %68, align 4
  store i32 %69, i32* %4, align 4
  %70 = load i32, i32* %3, align 4
  %71 = sext i32 %70 to i64
  %72 = getelementptr inbounds [100 x i32], [100 x i32]* %5, i64 0, i64 %71
  %73 = load i32, i32* %72, align 4
  %74 = load i32, i32* %2, align 4
  %75 = sub nsw i32 %74, 1
  %76 = load i32, i32* %3, align 4
  %77 = sub nsw i32 %75, %76
  %78 = sext i32 %77 to i64
  %79 = getelementptr inbounds [100 x i32], [100 x i32]* %5, i64 0, i64 %78
  store i32 %73, i32* %79, align 4
  %80 = load i32, i32* %4, align 4
  %81 = load i32, i32* %3, align 4
  %82 = sext i32 %81 to i64
  %83 = getelementptr inbounds [100 x i32], [100 x i32]* %5, i64 0, i64 %82
  store i32 %80, i32* %83, align 4
  br label %84

84:                                               ; preds = %62
  %85 = load i32, i32* %3, align 4
  %86 = add nsw i32 %85, 1
  store i32 %86, i32* %3, align 4
  br label %56

87:                                               ; preds = %56
  br label %88

88:                                               ; preds = %87, %54
  store i32 0, i32* %3, align 4
  br label %89

89:                                               ; preds = %100, %88
  %90 = load i32, i32* %3, align 4
  %91 = load i32, i32* %2, align 4
  %92 = sub nsw i32 %91, 1
  %93 = icmp slt i32 %90, %92
  br i1 %93, label %94, label %103

94:                                               ; preds = %89
  %95 = load i32, i32* %3, align 4
  %96 = sext i32 %95 to i64
  %97 = getelementptr inbounds [100 x i32], [100 x i32]* %5, i64 0, i64 %96
  %98 = load i32, i32* %97, align 4
  %99 = call i32 (i8*, ...) @printf(i8* getelementptr inbounds ([4 x i8], [4 x i8]* @.str.1, i64 0, i64 0), i32 %98)
  br label %100

100:                                              ; preds = %94
  %101 = load i32, i32* %3, align 4
  %102 = add nsw i32 %101, 1
  store i32 %102, i32* %3, align 4
  br label %89

103:                                              ; preds = %89
  %104 = load i32, i32* %2, align 4
  %105 = sub nsw i32 %104, 1
  %106 = sext i32 %105 to i64
  %107 = getelementptr inbounds [100 x i32], [100 x i32]* %5, i64 0, i64 %106
  %108 = load i32, i32* %107, align 4
  %109 = call i32 (i8*, ...) @printf(i8* getelementptr inbounds ([3 x i8], [3 x i8]* @.str, i64 0, i64 0), i32 %108)
  ret i32 0
}

declare dso_local i32 @__isoc99_scanf(i8*, ...) #1

declare dso_local i32 @printf(i8*, ...) #1


!llvm.module.flags = !{!0}
!llvm.ident = !{!1}

!0 = !{i32 1, !"wchar_size", i32 4}
!1 = !{!"clang version 10.0.0-4ubuntu1 "}
